target datalayout = "e-m:e-p270:32:32-p271:32:32-p272:64:64-i64:64-i128:128-f80:128-n8:16:32:64-S128"
target triple = "x86_64-pc-linux-gnu"

%struct.rb_io = type { i64, ptr, i32, i32, i32, i32, i64, ptr, %struct.rb_io_internal_buffer, %struct.rb_io_internal_buffer, i64, %struct.rb_io_encoding, ptr, %struct.rb_io_internal_buffer, ptr, i64, i32, i32, i64, i64, i64 }
%struct.rb_io_encoding = type { ptr, ptr, i32, i64 }
%struct.rb_io_internal_buffer = type <{ ptr, i32, i32, i32 }>
%union.__SOCKADDR_ARG = type { ptr }

@rsock_do_not_reverse_lookup = global i32 1, align 4
@sym_wait_readable = internal global i64 0, align 8
@.str.12 = private unnamed_addr constant [22 x i8] c"accept(2) would block\00", align 1
@.str.13 = private unnamed_addr constant [10 x i8] c"accept(2)\00", align 1

; Function Attrs: nounwind sspstrong uwtable
define i64 @rsock_init_sock(i64 noundef %0, i32 noundef %1) #0 {
  %3 = alloca i64, align 8
  %4 = alloca i32, align 4
  %5 = alloca ptr, align 8
  store i64 %0, ptr %3, align 8, !tbaa !13
  store i32 %1, ptr %4, align 4, !tbaa !11
  call void @llvm.lifetime.start.p0(i64 8, ptr %5) #21
  %6 = load i32, ptr %4, align 4, !tbaa !11
  call void @rb_update_max_fd(i32 noundef %6)
  br label %7

7:                                                ; preds = %2
  %8 = load i64, ptr %3, align 8, !tbaa !13
  %9 = call ptr @rb_io_make_open_file(i64 noundef %8)
  store ptr %9, ptr %5, align 8, !tbaa !15
  br label %10

10:                                               ; preds = %7
  br label %11

11:                                               ; preds = %10
  %12 = load i32, ptr %4, align 4, !tbaa !11
  %13 = load ptr, ptr %5, align 8, !tbaa !15
  %14 = getelementptr inbounds nuw %struct.rb_io, ptr %13, i32 0, i32 2
  store i32 %12, ptr %14, align 8, !tbaa !17
  %15 = load ptr, ptr %5, align 8, !tbaa !15
  %16 = getelementptr inbounds nuw %struct.rb_io, ptr %15, i32 0, i32 3
  store i32 35, ptr %16, align 4, !tbaa !24
  %17 = load i64, ptr %3, align 8, !tbaa !13
  %18 = call i64 @rb_io_ascii8bit_binmode(i64 noundef %17)
  %19 = load i32, ptr @rsock_do_not_reverse_lookup, align 4, !tbaa !11
  %20 = icmp ne i32 %19, 0
  br i1 %20, label %21, label %26

21:                                               ; preds = %11
  %22 = load ptr, ptr %5, align 8, !tbaa !15
  %23 = getelementptr inbounds nuw %struct.rb_io, ptr %22, i32 0, i32 3
  %24 = load i32, ptr %23, align 4, !tbaa !24
  %25 = or i32 %24, 256
  store i32 %25, ptr %23, align 4, !tbaa !24
  br label %26

26:                                               ; preds = %21, %11
  %27 = load ptr, ptr %5, align 8, !tbaa !15
  call void @rb_io_synchronized(ptr noundef %27)
  %28 = load i64, ptr %3, align 8, !tbaa !13
  call void @llvm.lifetime.end.p0(i64 8, ptr %5) #21
  ret i64 %28
}

; Function Attrs: nounwind sspstrong uwtable
define internal i32 @cloexec_accept(i32 noundef %0, ptr noundef %1, ptr noundef %2) #0 {
  %4 = alloca i32, align 4
  %5 = alloca i32, align 4
  %6 = alloca ptr, align 8
  %7 = alloca ptr, align 8
  %8 = alloca i32, align 4
  %9 = alloca i32, align 4
  %10 = alloca i32, align 4
  %11 = alloca %union.__SOCKADDR_ARG, align 8
  %12 = alloca i32, align 4
  store i32 %0, ptr %5, align 4, !tbaa !11
  store ptr %1, ptr %6, align 8, !tbaa !67
  store ptr %2, ptr %7, align 8, !tbaa !74
  call void @llvm.lifetime.start.p0(i64 4, ptr %8) #21
  store i32 0, ptr %8, align 4, !tbaa !11
  %13 = load ptr, ptr %7, align 8, !tbaa !74
  %14 = icmp ne ptr %13, null
  br i1 %14, label %15, label %18

15:                                               ; preds = %3
  %16 = load ptr, ptr %7, align 8, !tbaa !74
  %17 = load i32, ptr %16, align 4, !tbaa !11
  store i32 %17, ptr %8, align 4, !tbaa !11
  br label %18

18:                                               ; preds = %15, %3
  call void @llvm.lifetime.start.p0(i64 4, ptr %9) #21
  store i32 524288, ptr %9, align 4, !tbaa !11
  %19 = load i32, ptr %9, align 4, !tbaa !11
  %20 = or i32 %19, 2048
  store i32 %20, ptr %9, align 4, !tbaa !11
  call void @llvm.lifetime.start.p0(i64 4, ptr %10) #21
  %21 = load i32, ptr %5, align 4, !tbaa !11
  %22 = load ptr, ptr %6, align 8, !tbaa !67
  store ptr %22, ptr %11, align 8, !tbaa !34
  %23 = load ptr, ptr %7, align 8, !tbaa !74
  %24 = load i32, ptr %9, align 4, !tbaa !11
  %25 = getelementptr inbounds nuw %union.__SOCKADDR_ARG, ptr %11, i32 0, i32 0
  %26 = load ptr, ptr %25, align 8
  %27 = call i32 @accept4(i32 noundef %21, ptr %26, ptr noundef %23, i32 noundef %24)
  store i32 %27, ptr %10, align 4, !tbaa !11
  %28 = load i32, ptr %10, align 4, !tbaa !11
  %29 = icmp eq i32 %28, -1
  br i1 %29, label %30, label %31

30:                                               ; preds = %18
  store i32 -1, ptr %4, align 4
  store i32 1, ptr %12, align 4
  br label %44

31:                                               ; preds = %18
  %32 = load ptr, ptr %7, align 8, !tbaa !74
  %33 = icmp ne ptr %32, null
  br i1 %33, label %34, label %42

34:                                               ; preds = %31
  %35 = load i32, ptr %8, align 4, !tbaa !11
  %36 = load ptr, ptr %7, align 8, !tbaa !74
  %37 = load i32, ptr %36, align 4, !tbaa !11
  %38 = icmp ult i32 %35, %37
  br i1 %38, label %39, label %42

39:                                               ; preds = %34
  %40 = load i32, ptr %8, align 4, !tbaa !11
  %41 = load ptr, ptr %7, align 8, !tbaa !74
  store i32 %40, ptr %41, align 4, !tbaa !11
  br label %42

42:                                               ; preds = %39, %34, %31
  %43 = load i32, ptr %10, align 4, !tbaa !11
  store i32 %43, ptr %4, align 4
  store i32 1, ptr %12, align 4
  br label %44

44:                                               ; preds = %42, %30
  call void @llvm.lifetime.end.p0(i64 4, ptr %10) #21
  call void @llvm.lifetime.end.p0(i64 4, ptr %9) #21
  call void @llvm.lifetime.end.p0(i64 4, ptr %8) #21
  %45 = load i32, ptr %4, align 4
  ret i32 %45
}

; Function Attrs: nounwind sspstrong uwtable
define i64 @rsock_s_accept_nonblock(i64 noundef %0, i64 noundef %1, ptr noundef %2, ptr noundef %3, ptr noundef %4) #0 {
  %6 = alloca i64, align 8
  %7 = alloca i64, align 8
  %8 = alloca i64, align 8
  %9 = alloca ptr, align 8
  %10 = alloca ptr, align 8
  %11 = alloca ptr, align 8
  %12 = alloca i32, align 4
  %13 = alloca i32, align 4
  %14 = alloca i32, align 4
  store i64 %0, ptr %7, align 8, !tbaa !13
  store i64 %1, ptr %8, align 8, !tbaa !13
  store ptr %2, ptr %9, align 8, !tbaa !15
  store ptr %3, ptr %10, align 8, !tbaa !67
  store ptr %4, ptr %11, align 8, !tbaa !74
  call void @llvm.lifetime.start.p0(i64 4, ptr %12) #21
  %15 = load ptr, ptr %9, align 8, !tbaa !15
  call void @rb_io_set_nonblock(ptr noundef %15)
  %16 = load ptr, ptr %9, align 8, !tbaa !15
  %17 = getelementptr inbounds nuw %struct.rb_io, ptr %16, i32 0, i32 2
  %18 = load i32, ptr %17, align 8, !tbaa !17
  %19 = load ptr, ptr %10, align 8, !tbaa !67
  %20 = load ptr, ptr %11, align 8, !tbaa !74
  %21 = call i32 @cloexec_accept(i32 noundef %18, ptr noundef %19, ptr noundef %20)
  store i32 %21, ptr %12, align 4, !tbaa !11
  %22 = load i32, ptr %12, align 4, !tbaa !11
  %23 = icmp slt i32 %22, 0
  br i1 %23, label %24, label %37

24:                                               ; preds = %5
  call void @llvm.lifetime.start.p0(i64 4, ptr %13) #21
  %25 = call ptr @rb_errno_ptr()
  %26 = load i32, ptr %25, align 4, !tbaa !11
  store i32 %26, ptr %13, align 4, !tbaa !11
  %27 = load i32, ptr %13, align 4, !tbaa !11
  switch i32 %27, label %35 [
    i32 11, label %28
    i32 103, label %28
    i32 71, label %28
  ]

28:                                               ; preds = %24, %24, %24
  %29 = load i64, ptr %8, align 8, !tbaa !13
  %30 = icmp eq i64 %29, 0
  br i1 %30, label %31, label %33

31:                                               ; preds = %28
  %32 = load i64, ptr @sym_wait_readable, align 8, !tbaa !13
  store i64 %32, ptr %6, align 8
  store i32 1, ptr %14, align 4
  call void @llvm.lifetime.end.p0(i64 4, ptr %13) #21
  br label %43

33:                                               ; preds = %28
  %34 = load i32, ptr %13, align 4, !tbaa !11
  call void @rb_readwrite_syserr_fail(i32 noundef 0, i32 noundef %34, ptr noundef @.str.12) #22
  unreachable

35:                                               ; preds = %24
  %36 = load i32, ptr %13, align 4, !tbaa !11
  call void @rb_syserr_fail(i32 noundef %36, ptr noundef @.str.13) #22
  unreachable

37:                                               ; preds = %5
  %38 = load i32, ptr %12, align 4, !tbaa !11
  call void @rb_update_max_fd(i32 noundef %38)
  %39 = load i64, ptr %7, align 8, !tbaa !13
  %40 = call i64 @rb_obj_alloc(i64 noundef %39)
  %41 = load i32, ptr %12, align 4, !tbaa !11
  %42 = call i64 @rsock_init_sock(i64 noundef %40, i32 noundef %41)
  store i64 %42, ptr %6, align 8
  store i32 1, ptr %14, align 4
  br label %43

43:                                               ; preds = %37, %31
  call void @llvm.lifetime.end.p0(i64 4, ptr %12) #21
  %44 = load i64, ptr %6, align 8
  ret i64 %44
}