; Function Attrs: nounwind sspstrong uwtable
define i64 @rsock_s_accept_nonblock(i64 noundef %0, i64 noundef %1, ptr noundef %2, ptr noundef %3, ptr noundef %4) local_unnamed_addr #0 {
  tail call void @rb_io_set_nonblock(ptr noundef %2) #10
  %6 = getelementptr inbounds nuw i8, ptr %2, i64 16
  %7 = load i32, ptr %6, align 8, !tbaa !12
  %.not.i = icmp eq ptr %4, null
  br i1 %.not.i, label %.thread.i, label %9

.thread.i:                                        ; preds = %5
  %8 = tail call i32 @accept4(i32 noundef %7, ptr %3, ptr noundef null, i32 noundef 526336) #10
  br label %cloexec_accept.exit

9:                                                ; preds = %5
  %10 = load i32, ptr %4, align 4, !tbaa !6
  %11 = tail call i32 @accept4(i32 noundef %7, ptr %3, ptr noundef nonnull %4, i32 noundef 526336) #10
  %12 = icmp eq i32 %11, -1
  br i1 %12, label %cloexec_accept.exit.thread, label %13

13:                                               ; preds = %9
  %14 = load i32, ptr %4, align 4, !tbaa !6
  %15 = icmp ult i32 %10, %14
  br i1 %15, label %16, label %cloexec_accept.exit

16:                                               ; preds = %13
  store i32 %10, ptr %4, align 4, !tbaa !6
  br label %cloexec_accept.exit

cloexec_accept.exit:                              ; preds = %.thread.i, %13, %16
  %17 = phi i32 [ %8, %.thread.i ], [ %11, %13 ], [ %11, %16 ]
  %18 = icmp slt i32 %17, 0
  br i1 %18, label %cloexec_accept.exit.thread, label %27

cloexec_accept.exit.thread:                       ; preds = %9, %cloexec_accept.exit
  %19 = tail call ptr @rb_errno_ptr() #10
  %20 = load i32, ptr %19, align 4, !tbaa !6
  switch i32 %20, label %26 [
    i32 11, label %21
    i32 103, label %21
    i32 71, label %21
  ]

21:                                               ; preds = %cloexec_accept.exit.thread, %cloexec_accept.exit.thread, %cloexec_accept.exit.thread
  %22 = icmp eq i64 %1, 0
  br i1 %22, label %23, label %25

23:                                               ; preds = %21
  %24 = load i64, ptr @sym_wait_readable, align 8, !tbaa !10
  br label %37

25:                                               ; preds = %21
  tail call void @rb_readwrite_syserr_fail(i32 noundef 0, i32 noundef %20, ptr noundef nonnull @.str.12) #11
  unreachable

26:                                               ; preds = %cloexec_accept.exit.thread
  tail call void @rb_syserr_fail(i32 noundef %20, ptr noundef nonnull @.str.13) #11
  unreachable

27:                                               ; preds = %cloexec_accept.exit
  tail call void @rb_update_max_fd(i32 noundef %17) #10
  %28 = tail call i64 @rb_obj_alloc(i64 noundef %0) #10
  tail call void @rb_update_max_fd(i32 noundef %17) #10
  %29 = tail call ptr @rb_io_make_open_file(i64 noundef %28) #10
  %30 = getelementptr inbounds nuw i8, ptr %29, i64 16
  store i32 %17, ptr %30, align 8, !tbaa !12
  %31 = getelementptr inbounds nuw i8, ptr %29, i64 20
  store i32 35, ptr %31, align 4, !tbaa !21
  %32 = tail call i64 @rb_io_ascii8bit_binmode(i64 noundef %28) #10
  %33 = load i32, ptr @rsock_do_not_reverse_lookup, align 4, !tbaa !6
  %.not.i13 = icmp eq i32 %33, 0
  br i1 %.not.i13, label %rsock_init_sock.exit, label %34

34:                                               ; preds = %27
  %35 = load i32, ptr %31, align 4, !tbaa !21
  %36 = or i32 %35, 256
  store i32 %36, ptr %31, align 4, !tbaa !21
  br label %rsock_init_sock.exit

rsock_init_sock.exit:                             ; preds = %27, %34
  tail call void @rb_io_synchronized(ptr noundef nonnull %29) #10
  br label %37

37:                                               ; preds = %rsock_init_sock.exit, %23
  %.0 = phi i64 [ %24, %23 ], [ %28, %rsock_init_sock.exit ]
  ret i64 %.0
}